target datalayout = "e-m:e-p270:32:32-p271:32:32-p272:64:64-i64:64-i128:128-f80:128-n8:16:32:64-S128"
target triple = "x86_64-pc-linux-gnu"

%struct.uniq = type { ptr, i32, i32, i32, [256 x i32] }
%struct.UNIQMD5 = type { ptr, i32, [16 x i8], [33 x i8] }

@.str = private unnamed_addr constant [4 x i8] c"md5\00", align 1

; Function Attrs: nounwind uwtable
define i32 @uniq_get(ptr noundef %0, ptr noundef %1, i32 noundef %2, ptr noundef %3, ptr noundef %4) #0 {
  %6 = alloca ptr, align 8
  %7 = alloca ptr, align 8
  %8 = alloca i32, align 4
  %9 = alloca ptr, align 8
  %10 = alloca ptr, align 8
  %11 = alloca i32, align 4
  %12 = alloca [16 x i8], align 16
  %13 = alloca ptr, align 8
  %14 = alloca i32, align 4
  store ptr %0, ptr %6, align 8
  store ptr %1, ptr %7, align 8
  store i32 %2, ptr %8, align 4
  store ptr %3, ptr %9, align 8
  store ptr %4, ptr %10, align 8
  store i32 3, ptr %11, align 4
  store ptr null, ptr %13, align 8
  store i32 0, ptr %14, align 4
  %15 = load ptr, ptr %6, align 8
  %16 = icmp ne ptr %15, null
  br i1 %16, label %17, label %20

17:                                               ; preds = %5
  %18 = load ptr, ptr %10, align 8
  %19 = icmp ne ptr %18, null
  br i1 %19, label %21, label %20

20:                                               ; preds = %17, %5
  br label %90

21:                                               ; preds = %17
  %22 = load ptr, ptr %10, align 8
  store i32 0, ptr %22, align 4
  %23 = load ptr, ptr %6, align 8
  %24 = getelementptr inbounds %struct.uniq, ptr %23, i32 0, i32 1
  %25 = load i32, ptr %24, align 8
  %26 = icmp ne i32 %25, 0
  br i1 %26, label %28, label %27

27:                                               ; preds = %21
  br label %89

28:                                               ; preds = %21
  %29 = load ptr, ptr %7, align 8
  %30 = load i32, ptr %8, align 4
  %31 = zext i32 %30 to i64
  %32 = getelementptr inbounds [16 x i8], ptr %12, i64 0, i64 0
  %33 = call ptr @cl_hash_data(ptr noundef @.str, ptr noundef %29, i64 noundef %31, ptr noundef %32, ptr noundef null)
  %34 = icmp eq ptr null, %33
  br i1 %34, label %35, label %36

35:                                               ; preds = %28
  store i32 26, ptr %11, align 4
  br label %90

36:                                               ; preds = %28
  %37 = load ptr, ptr %6, align 8
  %38 = getelementptr inbounds %struct.uniq, ptr %37, i32 0, i32 4
  %39 = getelementptr inbounds [16 x i8], ptr %12, i64 0, i64 0
  %40 = load i8, ptr %39, align 16
  %41 = zext i8 %40 to i64
  %42 = getelementptr inbounds [256 x i32], ptr %38, i64 0, i64 %41
  %43 = load i32, ptr %42, align 4
  store i32 %43, ptr %14, align 4
  %44 = load ptr, ptr %6, align 8
  %45 = getelementptr inbounds %struct.uniq, ptr %44, i32 0, i32 0
  %46 = load ptr, ptr %45, align 8
  %47 = load i32, ptr %14, align 4
  %48 = zext i32 %47 to i64
  %49 = getelementptr inbounds %struct.UNIQMD5, ptr %46, i64 %48
  store ptr %49, ptr %13, align 8
  %50 = load ptr, ptr %13, align 8
  %51 = getelementptr inbounds %struct.UNIQMD5, ptr %50, i32 0, i32 2
  %52 = getelementptr inbounds [16 x i8], ptr %51, i64 0, i64 0
  %53 = load i8, ptr %52, align 4
  %54 = zext i8 %53 to i32
  %55 = getelementptr inbounds [16 x i8], ptr %12, i64 0, i64 0
  %56 = load i8, ptr %55, align 16
  %57 = zext i8 %56 to i32
  %58 = icmp ne i32 %54, %57
  br i1 %58, label %59, label %60

59:                                               ; preds = %36
  br label %89

60:                                               ; preds = %36
  br label %61

61:                                               ; preds = %85, %60
  %62 = getelementptr inbounds [16 x i8], ptr %12, i64 0, i64 1
  %63 = load ptr, ptr %13, align 8
  %64 = getelementptr inbounds %struct.UNIQMD5, ptr %63, i32 0, i32 2
  %65 = getelementptr inbounds [16 x i8], ptr %64, i64 0, i64 1
  %66 = call i32 @memcmp(ptr noundef %62, ptr noundef %65, i64 noundef 15) #8
  %67 = icmp eq i32 0, %66
  br i1 %67, label %68, label %81

68:                                               ; preds = %61
  %69 = load ptr, ptr %9, align 8
  %70 = icmp ne ptr %69, null
  br i1 %70, label %71, label %76

71:                                               ; preds = %68
  %72 = load ptr, ptr %13, align 8
  %73 = getelementptr inbounds %struct.UNIQMD5, ptr %72, i32 0, i32 3
  %74 = getelementptr inbounds [33 x i8], ptr %73, i64 0, i64 0
  %75 = load ptr, ptr %9, align 8
  store ptr %74, ptr %75, align 8
  br label %76

76:                                               ; preds = %71, %68
  %77 = load ptr, ptr %13, align 8
  %78 = getelementptr inbounds %struct.UNIQMD5, ptr %77, i32 0, i32 1
  %79 = load i32, ptr %78, align 8
  %80 = load ptr, ptr %10, align 8
  store i32 %79, ptr %80, align 4
  br label %88

81:                                               ; preds = %61
  %82 = load ptr, ptr %13, align 8
  %83 = getelementptr inbounds %struct.UNIQMD5, ptr %82, i32 0, i32 0
  %84 = load ptr, ptr %83, align 8
  store ptr %84, ptr %13, align 8
  br label %85

85:                                               ; preds = %81
  %86 = load ptr, ptr %13, align 8
  %87 = icmp ne ptr null, %86
  br i1 %87, label %61, label %88

88:                                               ; preds = %85, %76
  br label %89

89:                                               ; preds = %88, %59, %27
  store i32 0, ptr %11, align 4
  br label %90

90:                                               ; preds = %89, %35, %20
  %91 = load i32, ptr %11, align 4
  ret i32 %91
}