; Function Attrs: nounwind uwtable
define noundef i32 @uniq_get(ptr noundef readonly %0, ptr noundef %1, i32 noundef %2, ptr noundef writeonly %3, ptr noundef writeonly %4) local_unnamed_addr #0 {
  %6 = alloca [16 x i8], align 16
  %7 = icmp ne ptr %0, null
  %8 = icmp ne ptr %4, null
  %or.cond = and i1 %7, %8
  br i1 %or.cond, label %9, label %.loopexit

9:                                                ; preds = %5
  store i32 0, ptr %4, align 4
  %10 = getelementptr inbounds i8, ptr %0, i64 8
  %11 = load i32, ptr %10, align 8
  %.not = icmp eq i32 %11, 0
  br i1 %.not, label %.loopexit, label %12

12:                                               ; preds = %9
  %13 = zext i32 %2 to i64
  %14 = call ptr @cl_hash_data(ptr noundef nonnull @.str, ptr noundef %1, i64 noundef %13, ptr noundef nonnull %6, ptr noundef null) #7
  %15 = icmp eq ptr %14, null
  br i1 %15, label %.loopexit, label %16

16:                                               ; preds = %12
  %17 = getelementptr inbounds i8, ptr %0, i64 20
  %18 = load i8, ptr %6, align 16
  %19 = zext i8 %18 to i64
  %20 = getelementptr inbounds [256 x i32], ptr %17, i64 0, i64 %19
  %21 = load i32, ptr %20, align 4
  %22 = load ptr, ptr %0, align 8
  %23 = zext i32 %21 to i64
  %24 = getelementptr inbounds %struct.UNIQMD5, ptr %22, i64 %23
  %25 = getelementptr inbounds i8, ptr %24, i64 12
  %26 = load i8, ptr %25, align 4
  %.not24 = icmp eq i8 %26, %18
  br i1 %.not24, label %.preheader, label %.loopexit

.preheader:                                       ; preds = %16
  %27 = getelementptr inbounds i8, ptr %6, i64 1
  br label %28

28:                                               ; preds = %.preheader, %37
  %.0 = phi ptr [ %38, %37 ], [ %24, %.preheader ]
  %29 = getelementptr inbounds i8, ptr %.0, i64 13
  %bcmp = call i32 @bcmp(ptr noundef nonnull dereferenceable(15) %27, ptr noundef nonnull dereferenceable(15) %29, i64 15)
  %30 = icmp eq i32 %bcmp, 0
  br i1 %30, label %31, label %37

31:                                               ; preds = %28
  %.not26 = icmp eq ptr %3, null
  br i1 %.not26, label %34, label %32

32:                                               ; preds = %31
  %33 = getelementptr inbounds i8, ptr %.0, i64 28
  store ptr %33, ptr %3, align 8
  br label %34

34:                                               ; preds = %32, %31
  %35 = getelementptr inbounds i8, ptr %.0, i64 8
  %36 = load i32, ptr %35, align 8
  store i32 %36, ptr %4, align 4
  br label %.loopexit

37:                                               ; preds = %28
  %38 = load ptr, ptr %.0, align 8
  %.not25 = icmp eq ptr %38, null
  br i1 %.not25, label %.loopexit, label %28

.loopexit:                                        ; preds = %37, %9, %16, %34, %12, %5
  %.019 = phi i32 [ 3, %5 ], [ 26, %12 ], [ 0, %34 ], [ 0, %16 ], [ 0, %9 ], [ 0, %37 ]
  ret i32 %.019
}